target datalayout = "e-m:e-p270:32:32-p271:32:32-p272:64:64-i64:64-i128:128-f80:128-n8:16:32:64-S128"
target triple = "x86_64-unknown-linux-gnu"

%"class.datalog::check_table_plugin" = type <{ %"class.datalog::table_plugin", ptr, ptr, i32, [4 x i8] }>
%"class.datalog::table_plugin" = type { %"class.datalog::tr_infrastructure<datalog::table_traits>::plugin_object" }
%"class.datalog::tr_infrastructure<datalog::table_traits>::plugin_object" = type { ptr, i32, %class.symbol, ptr }
%class.symbol = type { ptr }
%"class.datalog::check_table" = type { %"class.datalog::table_base.base", ptr, ptr }
%"class.datalog::table_base.base" = type { %"class.datalog::tr_infrastructure<datalog::table_traits>::base_ancestor.base" }
%"class.datalog::tr_infrastructure<datalog::table_traits>::base_ancestor.base" = type <{ ptr, ptr, %"class.datalog::table_signature", i32 }>
%"class.datalog::table_signature" = type <{ %"class.datalog::tr_infrastructure<datalog::table_traits>::signature_base", i32, [4 x i8] }>
%"class.datalog::tr_infrastructure<datalog::table_traits>::signature_base" = type { %class.svector }
%class.svector = type { %class.vector }
%class.vector = type { ptr }
%"class.datalog::tr_infrastructure<datalog::table_traits>::base_ancestor" = type <{ ptr, ptr, %"class.datalog::table_signature", i32, [4 x i8] }>

@.str = private unnamed_addr constant [2 x i8] c"\0A\00", align 1

; Function Attrs: mustprogress nounwind uwtable
define linkonce_odr hidden noundef nonnull align 8 dereferenceable(32) ptr @_ZNK7datalog17tr_infrastructureINS_12table_traitsEE13base_ancestor10get_pluginEv(ptr noundef nonnull align 8 dereferenceable(36) %this) #5 comdat align 2 {
entry:
  %this.addr = alloca ptr, align 8
  store ptr %this, ptr %this.addr, align 8
  %this1 = load ptr, ptr %this.addr, align 8
  %m_plugin = getelementptr inbounds %"class.datalog::tr_infrastructure<datalog::table_traits>::base_ancestor", ptr %this1, i32 0, i32 1
  %0 = load ptr, ptr %m_plugin, align 8
  ret ptr %0
}

; Function Attrs: mustprogress uwtable
define linkonce_odr hidden noundef nonnull align 8 dereferenceable(52) ptr @_ZNK7datalog11check_table10get_pluginEv(ptr noundef nonnull align 8 dereferenceable(56) %this) #4 comdat align 2 {
entry:
  %this.addr = alloca ptr, align 8
  store ptr %this, ptr %this.addr, align 8
  %this1 = load ptr, ptr %this.addr, align 8
  %call = call noundef nonnull align 8 dereferenceable(32) ptr @_ZNK7datalog17tr_infrastructureINS_12table_traitsEE13base_ancestor10get_pluginEv(ptr noundef nonnull align 8 dereferenceable(36) %this1)
  ret ptr %call
}

; Function Attrs: mustprogress uwtable
define hidden noundef zeroext i1 @_ZNK7datalog11check_table5emptyEv(ptr noundef nonnull align 8 dereferenceable(56) %this) unnamed_addr #4 align 2 {
entry:
  %this.addr = alloca ptr, align 8
  store ptr %this, ptr %this.addr, align 8
  %this1 = load ptr, ptr %this.addr, align 8
  %m_tocheck = getelementptr inbounds %"class.datalog::check_table", ptr %this1, i32 0, i32 2
  %0 = load ptr, ptr %m_tocheck, align 8
  %vtable = load ptr, ptr %0, align 8
  %vfn = getelementptr inbounds ptr, ptr %vtable, i64 3
  %1 = load ptr, ptr %vfn, align 8
  %call = call noundef zeroext i1 %1(ptr noundef nonnull align 8 dereferenceable(36) %0)
  %conv = zext i1 %call to i32
  %m_checker = getelementptr inbounds %"class.datalog::check_table", ptr %this1, i32 0, i32 1
  %2 = load ptr, ptr %m_checker, align 8
  %vtable2 = load ptr, ptr %2, align 8
  %vfn3 = getelementptr inbounds ptr, ptr %vtable2, i64 3
  %3 = load ptr, ptr %vfn3, align 8
  %call4 = call noundef zeroext i1 %3(ptr noundef nonnull align 8 dereferenceable(36) %2)
  %conv5 = zext i1 %call4 to i32
  %cmp = icmp ne i32 %conv, %conv5
  br i1 %cmp, label %if.then, label %if.end

if.then:                                          ; preds = %entry
  %m_tocheck6 = getelementptr inbounds %"class.datalog::check_table", ptr %this1, i32 0, i32 2
  %4 = load ptr, ptr %m_tocheck6, align 8
  %call7 = call noundef nonnull align 8 dereferenceable(8) ptr @_Z14verbose_streamv()
  %vtable8 = load ptr, ptr %4, align 8
  %vfn9 = getelementptr inbounds ptr, ptr %vtable8, i64 15
  %5 = load ptr, ptr %vfn9, align 8
  call void %5(ptr noundef nonnull align 8 dereferenceable(36) %4, ptr noundef nonnull align 8 dereferenceable(8) %call7)
  %m_checker10 = getelementptr inbounds %"class.datalog::check_table", ptr %this1, i32 0, i32 1
  %6 = load ptr, ptr %m_checker10, align 8
  %call11 = call noundef nonnull align 8 dereferenceable(8) ptr @_Z14verbose_streamv()
  %vtable12 = load ptr, ptr %6, align 8
  %vfn13 = getelementptr inbounds ptr, ptr %vtable12, i64 15
  %7 = load ptr, ptr %vfn13, align 8
  call void %7(ptr noundef nonnull align 8 dereferenceable(36) %6, ptr noundef nonnull align 8 dereferenceable(8) %call11)
  %call14 = call noundef nonnull align 8 dereferenceable(8) ptr @_Z14verbose_streamv()
  %call15 = call noundef nonnull align 8 dereferenceable(52) ptr @_ZNK7datalog11check_table10get_pluginEv(ptr noundef nonnull align 8 dereferenceable(56) %this1)
  %m_count = getelementptr inbounds %"class.datalog::check_table_plugin", ptr %call15, i32 0, i32 3
  %8 = load i32, ptr %m_count, align 8
  %call16 = call noundef nonnull align 8 dereferenceable(8) ptr @_ZNSolsEj(ptr noundef nonnull align 8 dereferenceable(8) %call14, i32 noundef %8)
  %call17 = call noundef nonnull align 8 dereferenceable(8) ptr @_ZStlsISt11char_traitsIcEERSt13basic_ostreamIcT_ES5_PKc(ptr noundef nonnull align 8 dereferenceable(8) %call16, ptr noundef @.str)
  call void @_Z11fatal_errori(i32 noundef 0)
  br label %if.end

if.end:                                           ; preds = %if.then, %entry
  %m_tocheck18 = getelementptr inbounds %"class.datalog::check_table", ptr %this1, i32 0, i32 2
  %9 = load ptr, ptr %m_tocheck18, align 8
  %vtable19 = load ptr, ptr %9, align 8
  %vfn20 = getelementptr inbounds ptr, ptr %vtable19, i64 3
  %10 = load ptr, ptr %vfn20, align 8
  %call21 = call noundef zeroext i1 %10(ptr noundef nonnull align 8 dereferenceable(36) %9)
  ret i1 %call21
}