; Function Attrs: mustprogress uwtable
define hidden noundef zeroext i1 @_ZNK7datalog11check_table5emptyEv(ptr nocapture noundef nonnull readonly align 8 dereferenceable(56) %this) unnamed_addr #3 align 2 {
entry:
  %m_tocheck = getelementptr inbounds i8, ptr %this, i64 48
  %0 = load ptr, ptr %m_tocheck, align 8
  %vtable = load ptr, ptr %0, align 8
  %vfn = getelementptr inbounds i8, ptr %vtable, i64 24
  %1 = load ptr, ptr %vfn, align 8
  %call = tail call noundef zeroext i1 %1(ptr noundef nonnull align 8 dereferenceable(36) %0)
  %m_checker = getelementptr inbounds i8, ptr %this, i64 40
  %2 = load ptr, ptr %m_checker, align 8
  %vtable2 = load ptr, ptr %2, align 8
  %vfn3 = getelementptr inbounds i8, ptr %vtable2, i64 24
  %3 = load ptr, ptr %vfn3, align 8
  %call4 = tail call noundef zeroext i1 %3(ptr noundef nonnull align 8 dereferenceable(36) %2)
  %4 = xor i1 %call, %call4
  br i1 %4, label %if.then, label %if.end

if.then:                                          ; preds = %entry
  %5 = load ptr, ptr %m_tocheck, align 8
  %call7 = tail call noundef nonnull align 8 dereferenceable(8) ptr @_Z14verbose_streamv()
  %vtable8 = load ptr, ptr %5, align 8
  %vfn9 = getelementptr inbounds i8, ptr %vtable8, i64 120
  %6 = load ptr, ptr %vfn9, align 8
  tail call void %6(ptr noundef nonnull align 8 dereferenceable(36) %5, ptr noundef nonnull align 8 dereferenceable(8) %call7)
  %7 = load ptr, ptr %m_checker, align 8
  %call11 = tail call noundef nonnull align 8 dereferenceable(8) ptr @_Z14verbose_streamv()
  %vtable12 = load ptr, ptr %7, align 8
  %vfn13 = getelementptr inbounds i8, ptr %vtable12, i64 120
  %8 = load ptr, ptr %vfn13, align 8
  tail call void %8(ptr noundef nonnull align 8 dereferenceable(36) %7, ptr noundef nonnull align 8 dereferenceable(8) %call11)
  %call14 = tail call noundef nonnull align 8 dereferenceable(8) ptr @_Z14verbose_streamv()
  %m_plugin.i.i = getelementptr inbounds i8, ptr %this, i64 8
  %9 = load ptr, ptr %m_plugin.i.i, align 8
  %m_count = getelementptr inbounds i8, ptr %9, i64 48
  %10 = load i32, ptr %m_count, align 8
  %call16 = tail call noundef nonnull align 8 dereferenceable(8) ptr @_ZNSolsEj(ptr noundef nonnull align 8 dereferenceable(8) %call14, i32 noundef %10)
  %call17 = tail call noundef nonnull align 8 dereferenceable(8) ptr @_ZStlsISt11char_traitsIcEERSt13basic_ostreamIcT_ES5_PKc(ptr noundef nonnull align 8 dereferenceable(8) %call16, ptr noundef nonnull @.str)
  tail call void @_Z11fatal_errori(i32 noundef 0)
  br label %if.end

if.end:                                           ; preds = %if.then, %entry
  %11 = load ptr, ptr %m_tocheck, align 8
  %vtable19 = load ptr, ptr %11, align 8
  %vfn20 = getelementptr inbounds i8, ptr %vtable19, i64 24
  %12 = load ptr, ptr %vfn20, align 8
  %call21 = tail call noundef zeroext i1 %12(ptr noundef nonnull align 8 dereferenceable(36) %11)
  ret i1 %call21
}